target datalayout = "e-m:e-p270:32:32-p271:32:32-p272:64:64-i64:64-i128:128-f80:128-n8:16:32:64-S128"
target triple = "x86_64-pc-linux-gnu"

%struct.stat = type { i64, i64, i64, i32, i32, i32, i32, i64, i64, i64, i64, %struct.timespec, %struct.timespec, %struct.timespec, [3 x i64] }
%struct.timespec = type { i64, i64 }
%struct.dirent = type { i64, i64, i16, i8, [256 x i8] }

@.str.54 = private unnamed_addr constant [2 x i8] c".\00", align 1
@.str.140 = private unnamed_addr constant [3 x i8] c"..\00", align 1
@.str.143 = private unnamed_addr constant [28 x i8] c"t/unit-tests/clar/clar/fs.h\00", align 1
@__func__.fs_rm = private unnamed_addr constant [6 x i8] c"fs_rm\00", align 1
@.str.144 = private unnamed_addr constant [13 x i8] c"Test failed.\00", align 1
@.str.145 = private unnamed_addr constant [37 x i8] c"Cannot copy; cannot stat destination\00", align 1
@.str.146 = private unnamed_addr constant [35 x i8] c"Function call failed: unlink(path)\00", align 1
@__func__.fs_rmdir_helper = private unnamed_addr constant [16 x i8] c"fs_rmdir_helper\00", align 1
@.str.147 = private unnamed_addr constant [44 x i8] c"Expression is not true: dir = opendir(path)\00", align 1
@.str.148 = private unnamed_addr constant [19 x i8] c"Could not open dir\00", align 1
@.str.149 = private unnamed_addr constant [35 x i8] c"Expression is not true: errno == 0\00", align 1
@.str.150 = private unnamed_addr constant [29 x i8] c"Failed to iterate source dir\00", align 1
@.str.151 = private unnamed_addr constant [34 x i8] c"Function call failed: rmdir(path)\00", align 1
@.str.152 = private unnamed_addr constant [27 x i8] c"Could not remove directory\00", align 1
@__func__.joinpath = private unnamed_addr constant [9 x i8] c"joinpath\00", align 1
@.str.153 = private unnamed_addr constant [40 x i8] c"Expression is not true: bl < 2147483647\00", align 1
@.str.154 = private unnamed_addr constant [32 x i8] c"Expression is not true: len > 0\00", align 1
@.str.155 = private unnamed_addr constant [42 x i8] c"Expression is not true: out = malloc(len)\00", align 1
@.str.156 = private unnamed_addr constant [8 x i8] c"%s/%.*s\00", align 1
@.str.157 = private unnamed_addr constant [81 x i8] c"Expression is not true: snprintf(out, len, \22%s/%.*s\22, dir, base_len, base) < len\00", align 1

; Function Attrs: nounwind uwtable
define internal ptr @joinpath(ptr noundef %0, ptr noundef %1, i32 noundef %2) #0 {
  %4 = alloca ptr, align 8
  %5 = alloca ptr, align 8
  %6 = alloca i32, align 4
  %7 = alloca ptr, align 8
  %8 = alloca i32, align 4
  %9 = alloca i64, align 8
  store ptr %0, ptr %4, align 8, !tbaa !20
  store ptr %1, ptr %5, align 8, !tbaa !20
  store i32 %2, ptr %6, align 4, !tbaa !16
  call void @llvm.lifetime.start.p0(i64 8, ptr %7) #13
  call void @llvm.lifetime.start.p0(i64 4, ptr %8) #13
  %10 = load i32, ptr %6, align 4, !tbaa !16
  %11 = icmp eq i32 %10, -1
  br i1 %11, label %12, label %22

12:                                               ; preds = %3
  call void @llvm.lifetime.start.p0(i64 8, ptr %9) #13
  %13 = load ptr, ptr %5, align 8, !tbaa !20
  %14 = call i64 @strlen(ptr noundef %13) #14
  store i64 %14, ptr %9, align 8, !tbaa !26
  %15 = load i64, ptr %9, align 8, !tbaa !26
  %16 = icmp ult i64 %15, 2147483647
  %17 = zext i1 %16 to i32
  %18 = icmp ne i32 %17, 0
  %19 = zext i1 %18 to i32
  call void @clar__assert(i32 noundef %19, ptr noundef @.str.143, ptr noundef @__func__.joinpath, i64 noundef 357, ptr noundef @.str.153, ptr noundef null, i32 noundef 1)
  %20 = load i64, ptr %9, align 8, !tbaa !26
  %21 = trunc i64 %20 to i32
  store i32 %21, ptr %6, align 4, !tbaa !16
  call void @llvm.lifetime.end.p0(i64 8, ptr %9) #13
  br label %22

22:                                               ; preds = %12, %3
  %23 = load ptr, ptr %4, align 8, !tbaa !20
  %24 = call i64 @strlen(ptr noundef %23) #14
  %25 = load i32, ptr %6, align 4, !tbaa !16
  %26 = sext i32 %25 to i64
  %27 = add i64 %24, %26
  %28 = add i64 %27, 2
  %29 = trunc i64 %28 to i32
  store i32 %29, ptr %8, align 4, !tbaa !16
  %30 = load i32, ptr %8, align 4, !tbaa !16
  %31 = icmp sgt i32 %30, 0
  %32 = zext i1 %31 to i32
  %33 = icmp ne i32 %32, 0
  %34 = zext i1 %33 to i32
  call void @clar__assert(i32 noundef %34, ptr noundef @.str.143, ptr noundef @__func__.joinpath, i64 noundef 362, ptr noundef @.str.154, ptr noundef null, i32 noundef 1)
  %35 = load i32, ptr %8, align 4, !tbaa !16
  %36 = sext i32 %35 to i64
  %37 = call noalias ptr @malloc(i64 noundef %36) #18
  store ptr %37, ptr %7, align 8, !tbaa !20
  %38 = icmp ne ptr %37, null
  %39 = zext i1 %38 to i32
  call void @clar__assert(i32 noundef %39, ptr noundef @.str.143, ptr noundef @__func__.joinpath, i64 noundef 364, ptr noundef @.str.155, ptr noundef null, i32 noundef 1)
  %40 = load ptr, ptr %7, align 8, !tbaa !20
  %41 = load i32, ptr %8, align 4, !tbaa !16
  %42 = sext i32 %41 to i64
  %43 = load ptr, ptr %4, align 8, !tbaa !20
  %44 = load i32, ptr %6, align 4, !tbaa !16
  %45 = load ptr, ptr %5, align 8, !tbaa !20
  %46 = call i32 (ptr, i64, ptr, ...) @snprintf(ptr noundef %40, i64 noundef %42, ptr noundef @.str.156, ptr noundef %43, i32 noundef %44, ptr noundef %45) #13
  %47 = load i32, ptr %8, align 4, !tbaa !16
  %48 = icmp slt i32 %46, %47
  %49 = zext i1 %48 to i32
  %50 = icmp ne i32 %49, 0
  %51 = zext i1 %50 to i32
  call void @clar__assert(i32 noundef %51, ptr noundef @.str.143, ptr noundef @__func__.joinpath, i64 noundef 365, ptr noundef @.str.157, ptr noundef null, i32 noundef 1)
  %52 = load ptr, ptr %7, align 8, !tbaa !20
  call void @llvm.lifetime.end.p0(i64 4, ptr %8) #13
  call void @llvm.lifetime.end.p0(i64 8, ptr %7) #13
  ret ptr %52
}

; Function Attrs: nounwind uwtable
define dso_local void @clar__assert(i32 noundef %0, ptr noundef %1, ptr noundef %2, i64 noundef %3, ptr noundef %4, ptr noundef %5, i32 noundef %6) #0 {
  %8 = alloca i32, align 4
  %9 = alloca ptr, align 8
  %10 = alloca ptr, align 8
  %11 = alloca i64, align 8
  %12 = alloca ptr, align 8
  %13 = alloca ptr, align 8
  %14 = alloca i32, align 4
  store i32 %0, ptr %8, align 4, !tbaa !16
  store ptr %1, ptr %9, align 8, !tbaa !20
  store ptr %2, ptr %10, align 8, !tbaa !20
  store i64 %3, ptr %11, align 8, !tbaa !26
  store ptr %4, ptr %12, align 8, !tbaa !20
  store ptr %5, ptr %13, align 8, !tbaa !20
  store i32 %6, ptr %14, align 4, !tbaa !16
  %15 = load i32, ptr %8, align 4, !tbaa !16
  %16 = icmp ne i32 %15, 0
  br i1 %16, label %17, label %18

17:                                               ; preds = %7
  br label %25

18:                                               ; preds = %7
  %19 = load ptr, ptr %9, align 8, !tbaa !20
  %20 = load ptr, ptr %10, align 8, !tbaa !20
  %21 = load i64, ptr %11, align 8, !tbaa !26
  %22 = load ptr, ptr %12, align 8, !tbaa !20
  %23 = load ptr, ptr %13, align 8, !tbaa !20
  %24 = load i32, ptr %14, align 4, !tbaa !16
  call void @clar__fail(ptr noundef %19, ptr noundef %20, i64 noundef %21, ptr noundef %22, ptr noundef %23, i32 noundef %24)
  br label %25

25:                                               ; preds = %18, %17
  ret void
}

; Function Attrs: nounwind uwtable
define internal void @fs_rmdir_helper(ptr noundef %0) #0 {
  %2 = alloca ptr, align 8
  %3 = alloca ptr, align 8
  %4 = alloca ptr, align 8
  %5 = alloca ptr, align 8
  %6 = alloca i32, align 4
  store ptr %0, ptr %2, align 8, !tbaa !20
  call void @llvm.lifetime.start.p0(i64 8, ptr %3) #13
  call void @llvm.lifetime.start.p0(i64 8, ptr %4) #13
  %7 = load ptr, ptr %2, align 8, !tbaa !20
  %8 = call ptr @opendir(ptr noundef %7)
  store ptr %8, ptr %3, align 8, !tbaa !118
  %9 = icmp ne ptr %8, null
  %10 = zext i1 %9 to i32
  call void @clar__assert(i32 noundef %10, ptr noundef @.str.143, ptr noundef @__func__.fs_rmdir_helper, i64 noundef 481, ptr noundef @.str.147, ptr noundef @.str.148, i32 noundef 1)
  br label %11

11:                                               ; preds = %39, %37, %1
  %12 = call ptr @__errno_location() #17
  store i32 0, ptr %12, align 4, !tbaa !16
  %13 = load ptr, ptr %3, align 8, !tbaa !118
  %14 = call ptr @readdir(ptr noundef %13)
  store ptr %14, ptr %4, align 8, !tbaa !120
  %15 = icmp ne ptr %14, null
  br i1 %15, label %16, label %40

16:                                               ; preds = %11
  call void @llvm.lifetime.start.p0(i64 8, ptr %5) #13
  %17 = load ptr, ptr %4, align 8, !tbaa !120
  %18 = getelementptr inbounds nuw %struct.dirent, ptr %17, i32 0, i32 4
  %19 = getelementptr inbounds [256 x i8], ptr %18, i64 0, i64 0
  %20 = call i32 @strcmp(ptr noundef %19, ptr noundef @.str.54) #14
  %21 = icmp ne i32 %20, 0
  br i1 %21, label %22, label %28

22:                                               ; preds = %16
  %23 = load ptr, ptr %4, align 8, !tbaa !120
  %24 = getelementptr inbounds nuw %struct.dirent, ptr %23, i32 0, i32 4
  %25 = getelementptr inbounds [256 x i8], ptr %24, i64 0, i64 0
  %26 = call i32 @strcmp(ptr noundef %25, ptr noundef @.str.140) #14
  %27 = icmp ne i32 %26, 0
  br i1 %27, label %29, label %28

28:                                               ; preds = %22, %16
  store i32 2, ptr %6, align 4
  br label %37, !llvm.loop !122

29:                                               ; preds = %22
  %30 = load ptr, ptr %2, align 8, !tbaa !20
  %31 = load ptr, ptr %4, align 8, !tbaa !120
  %32 = getelementptr inbounds nuw %struct.dirent, ptr %31, i32 0, i32 4
  %33 = getelementptr inbounds [256 x i8], ptr %32, i64 0, i64 0
  %34 = call ptr @joinpath(ptr noundef %30, ptr noundef %33, i32 noundef -1)
  store ptr %34, ptr %5, align 8, !tbaa !20
  %35 = load ptr, ptr %5, align 8, !tbaa !20
  call void @fs_rm(ptr noundef %35)
  %36 = load ptr, ptr %5, align 8, !tbaa !20
  call void @free(ptr noundef %36) #13
  store i32 0, ptr %6, align 4
  br label %37

37:                                               ; preds = %29, %28
  call void @llvm.lifetime.end.p0(i64 8, ptr %5) #13
  %38 = load i32, ptr %6, align 4
  switch i32 %38, label %53 [
    i32 0, label %39
    i32 2, label %11
  ]

39:                                               ; preds = %37
  br label %11, !llvm.loop !122

40:                                               ; preds = %11
  %41 = call ptr @__errno_location() #17
  %42 = load i32, ptr %41, align 4, !tbaa !16
  %43 = icmp eq i32 %42, 0
  %44 = zext i1 %43 to i32
  %45 = icmp ne i32 %44, 0
  %46 = zext i1 %45 to i32
  call void @clar__assert(i32 noundef %46, ptr noundef @.str.143, ptr noundef @__func__.fs_rmdir_helper, i64 noundef 493, ptr noundef @.str.149, ptr noundef @.str.150, i32 noundef 1)
  %47 = load ptr, ptr %3, align 8, !tbaa !118
  %48 = call i32 @closedir(ptr noundef %47)
  %49 = load ptr, ptr %2, align 8, !tbaa !20
  %50 = call i32 @rmdir(ptr noundef %49) #13
  %51 = icmp sge i32 %50, 0
  %52 = zext i1 %51 to i32
  call void @clar__assert(i32 noundef %52, ptr noundef @.str.143, ptr noundef @__func__.fs_rmdir_helper, i64 noundef 496, ptr noundef @.str.151, ptr noundef @.str.152, i32 noundef 1)
  call void @llvm.lifetime.end.p0(i64 8, ptr %4) #13
  call void @llvm.lifetime.end.p0(i64 8, ptr %3) #13
  ret void

53:                                               ; preds = %37
  unreachable
}

; Function Attrs: nounwind uwtable
define internal void @fs_rm(ptr noundef %0) #0 {
  %2 = alloca ptr, align 8
  %3 = alloca %struct.stat, align 8
  %4 = alloca i32, align 4
  store ptr %0, ptr %2, align 8, !tbaa !20
  call void @llvm.lifetime.start.p0(i64 144, ptr %3) #13
  %5 = load ptr, ptr %2, align 8, !tbaa !20
  %6 = call i32 @lstat(ptr noundef %5, ptr noundef %3) #13
  %7 = icmp ne i32 %6, 0
  br i1 %7, label %8, label %14

8:                                                ; preds = %1
  %9 = call ptr @__errno_location() #17
  %10 = load i32, ptr %9, align 4, !tbaa !16
  %11 = icmp eq i32 %10, 2
  br i1 %11, label %12, label %13

12:                                               ; preds = %8
  store i32 1, ptr %4, align 4
  br label %27

13:                                               ; preds = %8
  call void @clar__fail(ptr noundef @.str.143, ptr noundef @__func__.fs_rm, i64 noundef 508, ptr noundef @.str.144, ptr noundef @.str.145, i32 noundef 1)
  br label %14

14:                                               ; preds = %13, %1
  %15 = getelementptr inbounds nuw %struct.stat, ptr %3, i32 0, i32 3
  %16 = load i32, ptr %15, align 8, !tbaa !115
  %17 = and i32 %16, 61440
  %18 = icmp eq i32 %17, 16384
  br i1 %18, label %19, label %21

19:                                               ; preds = %14
  %20 = load ptr, ptr %2, align 8, !tbaa !20
  call void @fs_rmdir_helper(ptr noundef %20)
  br label %26

21:                                               ; preds = %14
  %22 = load ptr, ptr %2, align 8, !tbaa !20
  %23 = call i32 @unlink(ptr noundef %22) #13
  %24 = icmp sge i32 %23, 0
  %25 = zext i1 %24 to i32
  call void @clar__assert(i32 noundef %25, ptr noundef @.str.143, ptr noundef @__func__.fs_rm, i64 noundef 514, ptr noundef @.str.146, ptr noundef null, i32 noundef 1)
  br label %26

26:                                               ; preds = %21, %19
  store i32 0, ptr %4, align 4
  br label %27

27:                                               ; preds = %26, %12
  call void @llvm.lifetime.end.p0(i64 144, ptr %3) #13
  %28 = load i32, ptr %4, align 4
  switch i32 %28, label %30 [
    i32 0, label %29
    i32 1, label %29
  ]

29:                                               ; preds = %27, %27
  ret void

30:                                               ; preds = %27
  unreachable
}