; Function Attrs: nounwind uwtable
define internal fastcc void @fs_rm(ptr noundef %0) unnamed_addr #1 {
  %2 = alloca %struct.stat, align 8
  call void @llvm.lifetime.start.p0(i64 144, ptr nonnull %2) #31
  %3 = call i32 @lstat(ptr noundef %0, ptr noundef nonnull %2) #31
  %.not = icmp eq i32 %3, 0
  br i1 %.not, label %9, label %4

4:                                                ; preds = %1
  %5 = tail call ptr @__errno_location() #32
  %6 = load i32, ptr %5, align 4, !tbaa !40
  %7 = icmp eq i32 %6, 2
  br i1 %7, label %clar__assert.exit5, label %8

8:                                                ; preds = %4
  tail call void @clar__fail(ptr noundef nonnull @.str.143, ptr noundef nonnull @__func__.fs_rm, i64 noundef 508, ptr noundef nonnull @.str.144, ptr noundef nonnull @.str.145, i32 noundef 1)
  br label %9

9:                                                ; preds = %8, %1
  %10 = getelementptr inbounds nuw i8, ptr %2, i64 24
  %11 = load i32, ptr %10, align 8, !tbaa !46
  %12 = and i32 %11, 61440
  %13 = icmp eq i32 %12, 16384
  br i1 %13, label %14, label %53

14:                                               ; preds = %9
  %15 = tail call ptr @opendir(ptr noundef %0)
  %.not11 = icmp eq ptr %15, null
  br i1 %.not11, label %16, label %clar__assert.exit10

16:                                               ; preds = %14
  tail call void @clar__fail(ptr noundef nonnull @.str.143, ptr noundef nonnull @__func__.fs_rmdir_helper, i64 noundef 481, ptr noundef nonnull @.str.147, ptr noundef nonnull @.str.148, i32 noundef 1)
  br label %clar__assert.exit10

clar__assert.exit10:                              ; preds = %14, %16
  %17 = tail call ptr @__errno_location() #32
  store i32 0, ptr %17, align 4, !tbaa !40
  %18 = tail call ptr @readdir(ptr noundef %15) #31
  %.not.i17 = icmp eq ptr %18, null
  br i1 %.not.i17, label %fs_rmdir_helper.exit, label %sub_0

sub_0:                                            ; preds = %clar__assert.exit10, %45
  %19 = phi ptr [ %46, %45 ], [ %18, %clar__assert.exit10 ]
  %20 = getelementptr inbounds nuw i8, ptr %19, i64 19
  %21 = load i8, ptr %20, align 1
  %.not18 = icmp eq i8 %21, 46
  br i1 %.not18, label %.tail, label %.tail13.thread

.tail:                                            ; preds = %sub_0
  %22 = getelementptr inbounds nuw i8, ptr %19, i64 20
  %23 = load i8, ptr %22, align 1
  %24 = icmp eq i8 %23, 0
  br i1 %24, label %45, label %sub_115, !llvm.loop !115

sub_115:                                          ; preds = %.tail
  %25 = getelementptr inbounds nuw i8, ptr %19, i64 20
  %26 = load i8, ptr %25, align 1
  %.not20 = icmp eq i8 %26, 46
  br i1 %.not20, label %.tail13, label %.tail13.thread

.tail13:                                          ; preds = %sub_115
  %27 = getelementptr inbounds nuw i8, ptr %19, i64 21
  %28 = load i8, ptr %27, align 1
  %29 = icmp eq i8 %28, 0
  br i1 %29, label %45, label %.tail13.thread, !llvm.loop !115

.tail13.thread:                                   ; preds = %sub_0, %sub_115, %.tail13
  %30 = tail call i64 @strlen(ptr noundef nonnull dereferenceable(1) %20) #28
  %31 = icmp ugt i64 %30, 2147483646
  br i1 %31, label %32, label %clar__assert.exit.i

32:                                               ; preds = %.tail13.thread
  tail call void @clar__fail(ptr noundef nonnull @.str.143, ptr noundef nonnull @__func__.joinpath, i64 noundef 357, ptr noundef nonnull @.str.153, ptr noundef null, i32 noundef 1)
  br label %clar__assert.exit.i

clar__assert.exit.i:                              ; preds = %32, %.tail13.thread
  %33 = trunc i64 %30 to i32
  %34 = tail call i64 @strlen(ptr noundef nonnull dereferenceable(1) %0) #28
  %35 = add i64 %34, %30
  %36 = trunc i64 %35 to i32
  %37 = add i32 %36, 2
  %38 = icmp slt i32 %37, 1
  br i1 %38, label %39, label %clar__assert.exit16.i

39:                                               ; preds = %clar__assert.exit.i
  tail call void @clar__fail(ptr noundef nonnull @.str.143, ptr noundef nonnull @__func__.joinpath, i64 noundef 362, ptr noundef nonnull @.str.154, ptr noundef null, i32 noundef 1)
  br label %clar__assert.exit16.i

clar__assert.exit16.i:                            ; preds = %39, %clar__assert.exit.i
  %40 = sext i32 %37 to i64
  %41 = tail call noalias ptr @malloc(i64 noundef %40) #33
  %.not.i8 = icmp eq ptr %41, null
  br i1 %.not.i8, label %42, label %clar__assert.exit18.i

42:                                               ; preds = %clar__assert.exit16.i
  tail call void @clar__fail(ptr noundef nonnull @.str.143, ptr noundef nonnull @__func__.joinpath, i64 noundef 364, ptr noundef nonnull @.str.155, ptr noundef null, i32 noundef 1)
  br label %clar__assert.exit18.i

clar__assert.exit18.i:                            ; preds = %42, %clar__assert.exit16.i
  %43 = tail call i32 (ptr, i64, ptr, ...) @snprintf(ptr noundef %41, i64 noundef %40, ptr noundef nonnull @.str.156, ptr noundef nonnull %0, i32 noundef %33, ptr noundef nonnull %20) #31
  %.not21.i = icmp slt i32 %43, %37
  br i1 %.not21.i, label %joinpath.exit, label %44

44:                                               ; preds = %clar__assert.exit18.i
  tail call void @clar__fail(ptr noundef nonnull @.str.143, ptr noundef nonnull @__func__.joinpath, i64 noundef 365, ptr noundef nonnull @.str.157, ptr noundef null, i32 noundef 1)
  br label %joinpath.exit

joinpath.exit:                                    ; preds = %clar__assert.exit18.i, %44
  tail call fastcc void @fs_rm(ptr noundef %41)
  tail call void @free(ptr noundef %41) #31
  br label %45

45:                                               ; preds = %joinpath.exit, %.tail13, %.tail
  store i32 0, ptr %17, align 4, !tbaa !40
  %46 = tail call ptr @readdir(ptr noundef %15) #31
  %.not.i = icmp eq ptr %46, null
  br i1 %.not.i, label %fs_rmdir_helper.exit, label %sub_0

fs_rmdir_helper.exit:                             ; preds = %45, %clar__assert.exit10
  %47 = load i32, ptr %17, align 4, !tbaa !40
  %.not12 = icmp eq i32 %47, 0
  br i1 %.not12, label %clar__assert.exit7, label %48

48:                                               ; preds = %fs_rmdir_helper.exit
  tail call void @clar__fail(ptr noundef nonnull @.str.143, ptr noundef nonnull @__func__.fs_rmdir_helper, i64 noundef 493, ptr noundef nonnull @.str.149, ptr noundef nonnull @.str.150, i32 noundef 1)
  br label %clar__assert.exit7

clar__assert.exit7:                               ; preds = %fs_rmdir_helper.exit, %48
  %49 = tail call i32 @closedir(ptr noundef %15)
  %50 = tail call i32 @rmdir(ptr noundef %0) #31
  %51 = icmp slt i32 %50, 0
  br i1 %51, label %52, label %clar__assert.exit5

52:                                               ; preds = %clar__assert.exit7
  tail call void @clar__fail(ptr noundef nonnull @.str.143, ptr noundef nonnull @__func__.fs_rmdir_helper, i64 noundef 496, ptr noundef nonnull @.str.151, ptr noundef nonnull @.str.152, i32 noundef 1)
  br label %clar__assert.exit5

53:                                               ; preds = %9
  %54 = tail call i32 @unlink(ptr noundef %0) #31
  %55 = icmp slt i32 %54, 0
  br i1 %55, label %56, label %clar__assert.exit5

56:                                               ; preds = %53
  tail call void @clar__fail(ptr noundef nonnull @.str.143, ptr noundef nonnull @__func__.fs_rm, i64 noundef 514, ptr noundef nonnull @.str.146, ptr noundef null, i32 noundef 1)
  br label %clar__assert.exit5

clar__assert.exit5:                               ; preds = %56, %53, %52, %clar__assert.exit7, %4
  call void @llvm.lifetime.end.p0(i64 144, ptr nonnull %2) #31
  ret void
}